target datalayout = "e-m:e-p270:32:32-p271:32:32-p272:64:64-i64:64-i128:128-f80:128-n8:16:32:64-S128"
target triple = "x86_64-pc-linux-gnu"

%struct.pmix_mca_base_framework_t = type { ptr, ptr, ptr, ptr, ptr, ptr, i32, i32, ptr, ptr, i32, i32, %struct.pmix_list_t, %struct.pmix_list_t }
%struct.pmix_list_t = type { %struct.pmix_object_t, %struct.pmix_list_item_t, i64 }
%struct.pmix_object_t = type { %union.pthread_mutex_t, ptr, i32, %struct.pmix_tma }
%union.pthread_mutex_t = type { %struct.__pthread_mutex_s }
%struct.__pthread_mutex_s = type { i32, i32, i32, i32, i32, i16, i16, %struct.__pthread_internal_list }
%struct.__pthread_internal_list = type { ptr, ptr }
%struct.pmix_tma = type { ptr, ptr, ptr, ptr, ptr, ptr, ptr, ptr }
%struct.pmix_list_item_t = type { %struct.pmix_object_t, ptr, ptr, i32 }
%struct.pmix_output_desc_t = type { i8, i8, i32, i8, i32, ptr, ptr, i32, ptr, i32, i8, i8, i8, i8, ptr, i32, i32 }

@pmix_ptl_base_framework = external global %struct.pmix_mca_base_framework_t, align 8
@pmix_output_info = external global [0 x %struct.pmix_output_desc_t], align 8
@.str.8 = private unnamed_addr constant [39 x i8] c"waiting for blocking recv of %lu bytes\00", align 1
@.str.9 = private unnamed_addr constant [49 x i8] c"ptl:base:recv_blocking: remote closed connection\00", align 1
@.str.10 = private unnamed_addr constant [57 x i8] c"blocking_recv received error %d:%s from remote - cycling\00", align 1
@.str.11 = private unnamed_addr constant [58 x i8] c"blocking_recv received error %d:%s from remote - aborting\00", align 1
@.str.12 = private unnamed_addr constant [38 x i8] c"blocking receive complete from remote\00", align 1

; Function Attrs: nounwind uwtable
define i32 @pmix_ptl_base_recv_blocking(i32 noundef %0, ptr noundef %1, i64 noundef %2) #0 {
  %4 = alloca i32, align 4
  %5 = alloca i32, align 4
  %6 = alloca ptr, align 8
  %7 = alloca i64, align 8
  %8 = alloca i64, align 8
  %9 = alloca i32, align 4
  %10 = alloca i32, align 4
  store i32 %0, ptr %5, align 4, !tbaa !3
  store ptr %1, ptr %6, align 8, !tbaa !7
  store i64 %2, ptr %7, align 8, !tbaa !10
  call void @llvm.lifetime.start.p0(i64 8, ptr %8) #11
  store i64 0, ptr %8, align 8, !tbaa !10
  %11 = load i32, ptr getelementptr inbounds nuw (%struct.pmix_mca_base_framework_t, ptr @pmix_ptl_base_framework, i32 0, i32 11), align 4, !tbaa !12
  %12 = icmp sge i32 %11, 0
  br i1 %12, label %13, label %26

13:                                               ; preds = %3
  %14 = load i32, ptr getelementptr inbounds nuw (%struct.pmix_mca_base_framework_t, ptr @pmix_ptl_base_framework, i32 0, i32 11), align 4, !tbaa !12
  %15 = icmp slt i32 %14, 64
  br i1 %15, label %16, label %26

16:                                               ; preds = %13
  %17 = load i32, ptr getelementptr inbounds nuw (%struct.pmix_mca_base_framework_t, ptr @pmix_ptl_base_framework, i32 0, i32 11), align 4, !tbaa !12
  %18 = sext i32 %17 to i64
  %19 = getelementptr inbounds [0 x %struct.pmix_output_desc_t], ptr @pmix_output_info, i64 0, i64 %18
  %20 = getelementptr inbounds nuw %struct.pmix_output_desc_t, ptr %19, i32 0, i32 2
  %21 = load i32, ptr %20, align 4, !tbaa !21
  %22 = icmp sge i32 %21, 8
  br i1 %22, label %23, label %26

23:                                               ; preds = %16
  %24 = load i32, ptr getelementptr inbounds nuw (%struct.pmix_mca_base_framework_t, ptr @pmix_ptl_base_framework, i32 0, i32 11), align 4, !tbaa !12
  %25 = load i64, ptr %7, align 8, !tbaa !10
  call void (i32, ptr, ...) @pmix_output(i32 noundef %24, ptr noundef @.str.8, i64 noundef %25)
  br label %26

26:                                               ; preds = %23, %16, %13, %3
  br label %27

27:                                               ; preds = %124, %122, %26
  %28 = load i64, ptr %8, align 8, !tbaa !10
  %29 = load i64, ptr %7, align 8, !tbaa !10
  %30 = icmp ult i64 %28, %29
  br i1 %30, label %31, label %125

31:                                               ; preds = %27
  call void @llvm.lifetime.start.p0(i64 4, ptr %9) #11
  %32 = load i32, ptr %5, align 4, !tbaa !3
  %33 = load ptr, ptr %6, align 8, !tbaa !7
  %34 = load i64, ptr %8, align 8, !tbaa !10
  %35 = getelementptr inbounds nuw i8, ptr %33, i64 %34
  %36 = load i64, ptr %7, align 8, !tbaa !10
  %37 = load i64, ptr %8, align 8, !tbaa !10
  %38 = sub i64 %36, %37
  %39 = call i64 @recv(i32 noundef %32, ptr noundef %35, i64 noundef %38, i32 noundef 256)
  %40 = trunc i64 %39 to i32
  store i32 %40, ptr %9, align 4, !tbaa !3
  %41 = load i32, ptr %9, align 4, !tbaa !3
  %42 = icmp eq i32 %41, 0
  br i1 %42, label %43, label %59

43:                                               ; preds = %31
  %44 = load i32, ptr getelementptr inbounds nuw (%struct.pmix_mca_base_framework_t, ptr @pmix_ptl_base_framework, i32 0, i32 11), align 4, !tbaa !12
  %45 = icmp sge i32 %44, 0
  br i1 %45, label %46, label %58

46:                                               ; preds = %43
  %47 = load i32, ptr getelementptr inbounds nuw (%struct.pmix_mca_base_framework_t, ptr @pmix_ptl_base_framework, i32 0, i32 11), align 4, !tbaa !12
  %48 = icmp slt i32 %47, 64
  br i1 %48, label %49, label %58

49:                                               ; preds = %46
  %50 = load i32, ptr getelementptr inbounds nuw (%struct.pmix_mca_base_framework_t, ptr @pmix_ptl_base_framework, i32 0, i32 11), align 4, !tbaa !12
  %51 = sext i32 %50 to i64
  %52 = getelementptr inbounds [0 x %struct.pmix_output_desc_t], ptr @pmix_output_info, i64 0, i64 %51
  %53 = getelementptr inbounds nuw %struct.pmix_output_desc_t, ptr %52, i32 0, i32 2
  %54 = load i32, ptr %53, align 4, !tbaa !21
  %55 = icmp sge i32 %54, 8
  br i1 %55, label %56, label %58

56:                                               ; preds = %49
  %57 = load i32, ptr getelementptr inbounds nuw (%struct.pmix_mca_base_framework_t, ptr @pmix_ptl_base_framework, i32 0, i32 11), align 4, !tbaa !12
  call void (i32, ptr, ...) @pmix_output(i32 noundef %57, ptr noundef @.str.9)
  br label %58

58:                                               ; preds = %56, %49, %46, %43
  store i32 -25, ptr %4, align 4
  store i32 1, ptr %10, align 4
  br label %122

59:                                               ; preds = %31
  %60 = load i32, ptr %9, align 4, !tbaa !3
  %61 = icmp slt i32 %60, 0
  br i1 %61, label %62, label %117

62:                                               ; preds = %59
  %63 = call ptr @__errno_location() #12
  %64 = load i32, ptr %63, align 4, !tbaa !3
  %65 = icmp eq i32 11, %64
  br i1 %65, label %70, label %66

66:                                               ; preds = %62
  %67 = call ptr @__errno_location() #12
  %68 = load i32, ptr %67, align 4, !tbaa !3
  %69 = icmp eq i32 11, %68
  br i1 %69, label %70, label %91

70:                                               ; preds = %66, %62
  %71 = load i32, ptr getelementptr inbounds nuw (%struct.pmix_mca_base_framework_t, ptr @pmix_ptl_base_framework, i32 0, i32 11), align 4, !tbaa !12
  %72 = icmp sge i32 %71, 0
  br i1 %72, label %73, label %90

73:                                               ; preds = %70
  %74 = load i32, ptr getelementptr inbounds nuw (%struct.pmix_mca_base_framework_t, ptr @pmix_ptl_base_framework, i32 0, i32 11), align 4, !tbaa !12
  %75 = icmp slt i32 %74, 64
  br i1 %75, label %76, label %90

76:                                               ; preds = %73
  %77 = load i32, ptr getelementptr inbounds nuw (%struct.pmix_mca_base_framework_t, ptr @pmix_ptl_base_framework, i32 0, i32 11), align 4, !tbaa !12
  %78 = sext i32 %77 to i64
  %79 = getelementptr inbounds [0 x %struct.pmix_output_desc_t], ptr @pmix_output_info, i64 0, i64 %78
  %80 = getelementptr inbounds nuw %struct.pmix_output_desc_t, ptr %79, i32 0, i32 2
  %81 = load i32, ptr %80, align 4, !tbaa !21
  %82 = icmp sge i32 %81, 8
  br i1 %82, label %83, label %90

83:                                               ; preds = %76
  %84 = load i32, ptr getelementptr inbounds nuw (%struct.pmix_mca_base_framework_t, ptr @pmix_ptl_base_framework, i32 0, i32 11), align 4, !tbaa !12
  %85 = call ptr @__errno_location() #12
  %86 = load i32, ptr %85, align 4, !tbaa !3
  %87 = call ptr @__errno_location() #12
  %88 = load i32, ptr %87, align 4, !tbaa !3
  %89 = call ptr @strerror(i32 noundef %88) #11
  call void (i32, ptr, ...) @pmix_output(i32 noundef %84, ptr noundef @.str.10, i32 noundef %86, ptr noundef %89)
  br label %90

90:                                               ; preds = %83, %76, %73, %70
  store i32 2, ptr %10, align 4
  br label %122, !llvm.loop !26

91:                                               ; preds = %66
  %92 = call ptr @__errno_location() #12
  %93 = load i32, ptr %92, align 4, !tbaa !3
  %94 = icmp ne i32 %93, 4
  br i1 %94, label %95, label %116

95:                                               ; preds = %91
  %96 = load i32, ptr getelementptr inbounds nuw (%struct.pmix_mca_base_framework_t, ptr @pmix_ptl_base_framework, i32 0, i32 11), align 4, !tbaa !12
  %97 = icmp sge i32 %96, 0
  br i1 %97, label %98, label %115

98:                                               ; preds = %95
  %99 = load i32, ptr getelementptr inbounds nuw (%struct.pmix_mca_base_framework_t, ptr @pmix_ptl_base_framework, i32 0, i32 11), align 4, !tbaa !12
  %100 = icmp slt i32 %99, 64
  br i1 %100, label %101, label %115

101:                                              ; preds = %98
  %102 = load i32, ptr getelementptr inbounds nuw (%struct.pmix_mca_base_framework_t, ptr @pmix_ptl_base_framework, i32 0, i32 11), align 4, !tbaa !12
  %103 = sext i32 %102 to i64
  %104 = getelementptr inbounds [0 x %struct.pmix_output_desc_t], ptr @pmix_output_info, i64 0, i64 %103
  %105 = getelementptr inbounds nuw %struct.pmix_output_desc_t, ptr %104, i32 0, i32 2
  %106 = load i32, ptr %105, align 4, !tbaa !21
  %107 = icmp sge i32 %106, 8
  br i1 %107, label %108, label %115

108:                                              ; preds = %101
  %109 = load i32, ptr getelementptr inbounds nuw (%struct.pmix_mca_base_framework_t, ptr @pmix_ptl_base_framework, i32 0, i32 11), align 4, !tbaa !12
  %110 = call ptr @__errno_location() #12
  %111 = load i32, ptr %110, align 4, !tbaa !3
  %112 = call ptr @__errno_location() #12
  %113 = load i32, ptr %112, align 4, !tbaa !3
  %114 = call ptr @strerror(i32 noundef %113) #11
  call void (i32, ptr, ...) @pmix_output(i32 noundef %109, ptr noundef @.str.11, i32 noundef %111, ptr noundef %114)
  br label %115

115:                                              ; preds = %108, %101, %98, %95
  store i32 -25, ptr %4, align 4
  store i32 1, ptr %10, align 4
  br label %122

116:                                              ; preds = %91
  store i32 2, ptr %10, align 4
  br label %122, !llvm.loop !26

117:                                              ; preds = %59
  %118 = load i32, ptr %9, align 4, !tbaa !3
  %119 = sext i32 %118 to i64
  %120 = load i64, ptr %8, align 8, !tbaa !10
  %121 = add i64 %120, %119
  store i64 %121, ptr %8, align 8, !tbaa !10
  store i32 0, ptr %10, align 4
  br label %122

122:                                              ; preds = %117, %116, %115, %90, %58
  call void @llvm.lifetime.end.p0(i64 4, ptr %9) #11
  %123 = load i32, ptr %10, align 4
  switch i32 %123, label %141 [
    i32 0, label %124
    i32 2, label %27
  ]

124:                                              ; preds = %122
  br label %27, !llvm.loop !26

125:                                              ; preds = %27
  %126 = load i32, ptr getelementptr inbounds nuw (%struct.pmix_mca_base_framework_t, ptr @pmix_ptl_base_framework, i32 0, i32 11), align 4, !tbaa !12
  %127 = icmp sge i32 %126, 0
  br i1 %127, label %128, label %140

128:                                              ; preds = %125
  %129 = load i32, ptr getelementptr inbounds nuw (%struct.pmix_mca_base_framework_t, ptr @pmix_ptl_base_framework, i32 0, i32 11), align 4, !tbaa !12
  %130 = icmp slt i32 %129, 64
  br i1 %130, label %131, label %140

131:                                              ; preds = %128
  %132 = load i32, ptr getelementptr inbounds nuw (%struct.pmix_mca_base_framework_t, ptr @pmix_ptl_base_framework, i32 0, i32 11), align 4, !tbaa !12
  %133 = sext i32 %132 to i64
  %134 = getelementptr inbounds [0 x %struct.pmix_output_desc_t], ptr @pmix_output_info, i64 0, i64 %133
  %135 = getelementptr inbounds nuw %struct.pmix_output_desc_t, ptr %134, i32 0, i32 2
  %136 = load i32, ptr %135, align 4, !tbaa !21
  %137 = icmp sge i32 %136, 8
  br i1 %137, label %138, label %140

138:                                              ; preds = %131
  %139 = load i32, ptr getelementptr inbounds nuw (%struct.pmix_mca_base_framework_t, ptr @pmix_ptl_base_framework, i32 0, i32 11), align 4, !tbaa !12
  call void (i32, ptr, ...) @pmix_output(i32 noundef %139, ptr noundef @.str.12)
  br label %140

140:                                              ; preds = %138, %131, %128, %125
  store i32 0, ptr %4, align 4
  store i32 1, ptr %10, align 4
  br label %141

141:                                              ; preds = %140, %122
  call void @llvm.lifetime.end.p0(i64 8, ptr %8) #11
  %142 = load i32, ptr %4, align 4
  ret i32 %142
}