; Function Attrs: nounwind uwtable
define range(i32 -25, 1) i32 @pmix_ptl_base_recv_blocking(i32 noundef %0, ptr noundef %1, i64 noundef %2) local_unnamed_addr #0 {
  %4 = load i32, ptr getelementptr inbounds nuw (i8, ptr @pmix_ptl_base_framework, i64 76), align 4, !tbaa !7
  %or.cond = icmp ult i32 %4, 64
  br i1 %or.cond, label %5, label %11

5:                                                ; preds = %3
  %6 = zext nneg i32 %4 to i64
  %7 = getelementptr inbounds nuw [0 x %struct.pmix_output_desc_t], ptr @pmix_output_info, i64 0, i64 %6, i32 2
  %8 = load i32, ptr %7, align 4, !tbaa !19
  %9 = icmp sgt i32 %8, 7
  br i1 %9, label %10, label %11

10:                                               ; preds = %5
  tail call void (i32, ptr, ...) @pmix_output(i32 noundef %4, ptr noundef nonnull @.str.8, i64 noundef %2) #14
  br label %11

11:                                               ; preds = %10, %5, %3
  %.not = icmp eq i64 %2, 0
  br i1 %.not, label %._crit_edge, label %.lr.ph

.lr.ph:                                           ; preds = %11, %51
  %.02335 = phi i64 [ %.124, %51 ], [ 0, %11 ]
  %12 = getelementptr inbounds nuw i8, ptr %1, i64 %.02335
  %13 = sub nuw i64 %2, %.02335
  %14 = tail call i64 @recv(i32 noundef %0, ptr noundef %12, i64 noundef %13, i32 noundef 256) #14
  %15 = trunc i64 %14 to i32
  %16 = icmp eq i32 %15, 0
  br i1 %16, label %17, label %25

17:                                               ; preds = %.lr.ph
  %18 = load i32, ptr getelementptr inbounds nuw (i8, ptr @pmix_ptl_base_framework, i64 76), align 4, !tbaa !7
  %or.cond3 = icmp ult i32 %18, 64
  br i1 %or.cond3, label %19, label %.thread

19:                                               ; preds = %17
  %20 = zext nneg i32 %18 to i64
  %21 = getelementptr inbounds nuw [0 x %struct.pmix_output_desc_t], ptr @pmix_output_info, i64 0, i64 %20, i32 2
  %22 = load i32, ptr %21, align 4, !tbaa !19
  %23 = icmp sgt i32 %22, 7
  br i1 %23, label %24, label %.thread

24:                                               ; preds = %19
  tail call void (i32, ptr, ...) @pmix_output(i32 noundef %18, ptr noundef nonnull @.str.9) #14
  br label %.thread

25:                                               ; preds = %.lr.ph
  %26 = icmp slt i32 %15, 0
  br i1 %26, label %27, label %48

27:                                               ; preds = %25
  %28 = tail call ptr @__errno_location() #15
  %29 = load i32, ptr %28, align 4, !tbaa !3
  switch i32 %29, label %39 [
    i32 11, label %30
    i32 4, label %51
  ], !llvm.loop !24

30:                                               ; preds = %27
  %31 = load i32, ptr getelementptr inbounds nuw (i8, ptr @pmix_ptl_base_framework, i64 76), align 4, !tbaa !7
  %or.cond5 = icmp ult i32 %31, 64
  br i1 %or.cond5, label %32, label %51, !llvm.loop !24

32:                                               ; preds = %30
  %33 = zext nneg i32 %31 to i64
  %34 = getelementptr inbounds nuw [0 x %struct.pmix_output_desc_t], ptr @pmix_output_info, i64 0, i64 %33, i32 2
  %35 = load i32, ptr %34, align 4, !tbaa !19
  %36 = icmp sgt i32 %35, 7
  br i1 %36, label %37, label %51, !llvm.loop !24

37:                                               ; preds = %32
  %38 = tail call ptr @strerror(i32 noundef 11) #14
  tail call void (i32, ptr, ...) @pmix_output(i32 noundef %31, ptr noundef nonnull @.str.10, i32 noundef 11, ptr noundef %38) #14
  br label %51, !llvm.loop !24

39:                                               ; preds = %27
  %40 = load i32, ptr getelementptr inbounds nuw (i8, ptr @pmix_ptl_base_framework, i64 76), align 4, !tbaa !7
  %or.cond7 = icmp ult i32 %40, 64
  br i1 %or.cond7, label %41, label %.thread

41:                                               ; preds = %39
  %42 = zext nneg i32 %40 to i64
  %43 = getelementptr inbounds nuw [0 x %struct.pmix_output_desc_t], ptr @pmix_output_info, i64 0, i64 %42, i32 2
  %44 = load i32, ptr %43, align 4, !tbaa !19
  %45 = icmp sgt i32 %44, 7
  br i1 %45, label %46, label %.thread

46:                                               ; preds = %41
  %47 = tail call ptr @strerror(i32 noundef %29) #14
  tail call void (i32, ptr, ...) @pmix_output(i32 noundef %40, ptr noundef nonnull @.str.11, i32 noundef %29, ptr noundef %47) #14
  br label %.thread

48:                                               ; preds = %25
  %49 = and i64 %14, 2147483647
  %50 = add i64 %49, %.02335
  br label %51

51:                                               ; preds = %27, %30, %32, %37, %48
  %.124 = phi i64 [ %50, %48 ], [ %.02335, %37 ], [ %.02335, %32 ], [ %.02335, %30 ], [ %.02335, %27 ]
  %52 = icmp ult i64 %.124, %2
  br i1 %52, label %.lr.ph, label %._crit_edge

._crit_edge:                                      ; preds = %51, %11
  %53 = load i32, ptr getelementptr inbounds nuw (i8, ptr @pmix_ptl_base_framework, i64 76), align 4, !tbaa !7
  %or.cond9 = icmp ult i32 %53, 64
  br i1 %or.cond9, label %54, label %.thread

54:                                               ; preds = %._crit_edge
  %55 = zext nneg i32 %53 to i64
  %56 = getelementptr inbounds nuw [0 x %struct.pmix_output_desc_t], ptr @pmix_output_info, i64 0, i64 %55, i32 2
  %57 = load i32, ptr %56, align 4, !tbaa !19
  %58 = icmp sgt i32 %57, 7
  br i1 %58, label %59, label %.thread

59:                                               ; preds = %54
  tail call void (i32, ptr, ...) @pmix_output(i32 noundef %53, ptr noundef nonnull @.str.12) #14
  br label %.thread

.thread:                                          ; preds = %39, %41, %46, %17, %19, %24, %._crit_edge, %54, %59
  %.2 = phi i32 [ 0, %59 ], [ 0, %54 ], [ 0, %._crit_edge ], [ -25, %24 ], [ -25, %19 ], [ -25, %17 ], [ -25, %46 ], [ -25, %41 ], [ -25, %39 ]
  ret i32 %.2
}